; Function Attrs: mustprogress uwtable
define void @_ZN6icu_775UTS46C2EjR10UErrorCode(ptr noundef nonnull align 8 dereferenceable(20) initializes((0, 8)) %0, i32 noundef %1, ptr noundef nonnull align 4 dereferenceable(4) %2) unnamed_addr #1 align 2 personality ptr @__gxx_personality_v0 {
  store ptr getelementptr inbounds nuw inrange(-16, 88) (i8, ptr @_ZTVN6icu_775UTS46E, i64 16), ptr %0, align 8, !tbaa !15
  %4 = invoke noundef ptr @_ZN6icu_7711Normalizer211getInstanceEPKcS2_19UNormalization2ModeR10UErrorCode(ptr noundef null, ptr noundef nonnull @.str, i32 noundef 0, ptr noundef nonnull align 4 dereferenceable(4) %2)
          to label %5 unwind label %8

5:                                                ; preds = %3
  %6 = getelementptr inbounds nuw i8, ptr %0, i64 8
  store ptr %4, ptr %6, align 8, !tbaa !18
  %7 = getelementptr inbounds nuw i8, ptr %0, i64 16
  store i32 %1, ptr %7, align 8, !tbaa !20
  ret void

8:                                                ; preds = %3
  %9 = landingpad { ptr, i32 }
          cleanup
  tail call void @_ZN6icu_777UObjectD2Ev(ptr noundef nonnull align 8 dereferenceable(8) %0) #17
  resume { ptr, i32 } %9
}